target datalayout = "e-m:e-p270:32:32-p271:32:32-p272:64:64-i64:64-i128:128-f80:128-n8:16:32:64-S128"
target triple = "x86_64-pc-linux-gnu"

%struct.lv_color_t = type { i8, i8, i8 }

; Function Attrs: nounwind uwtable
define i24 @lv_color_make(i8 noundef zeroext %0, i8 noundef zeroext %1, i8 noundef zeroext %2) #0 {
  %4 = alloca %struct.lv_color_t, align 1
  %5 = alloca i8, align 1
  %6 = alloca i8, align 1
  %7 = alloca i8, align 1
  %8 = alloca i24, align 4
  store i8 %0, ptr %5, align 1, !tbaa !7
  store i8 %1, ptr %6, align 1, !tbaa !7
  store i8 %2, ptr %7, align 1, !tbaa !7
  %9 = load i8, ptr %5, align 1, !tbaa !7
  %10 = getelementptr inbounds nuw %struct.lv_color_t, ptr %4, i32 0, i32 2
  store i8 %9, ptr %10, align 1, !tbaa !11
  %11 = load i8, ptr %6, align 1, !tbaa !7
  %12 = getelementptr inbounds nuw %struct.lv_color_t, ptr %4, i32 0, i32 1
  store i8 %11, ptr %12, align 1, !tbaa !15
  %13 = load i8, ptr %7, align 1, !tbaa !7
  %14 = getelementptr inbounds nuw %struct.lv_color_t, ptr %4, i32 0, i32 0
  store i8 %13, ptr %14, align 1, !tbaa !17
  call void @llvm.memcpy.p0.p0.i64(ptr align 4 %8, ptr align 1 %4, i64 3, i1 false)
  %15 = load i24, ptr %8, align 4
  ret i24 %15
}

; Function Attrs: nounwind uwtable
define i24 @lv_color_hsv_to_rgb(i16 noundef zeroext %0, i8 noundef zeroext %1, i8 noundef zeroext %2) #0 {
  %4 = alloca %struct.lv_color_t, align 1
  %5 = alloca i16, align 2
  %6 = alloca i8, align 1
  %7 = alloca i8, align 1
  %8 = alloca i8, align 1
  %9 = alloca i8, align 1
  %10 = alloca i8, align 1
  %11 = alloca i8, align 1
  %12 = alloca i8, align 1
  %13 = alloca i8, align 1
  %14 = alloca i8, align 1
  %15 = alloca i8, align 1
  %16 = alloca i32, align 4
  %17 = alloca i24, align 4
  store i16 %0, ptr %5, align 2, !tbaa !20
  store i8 %1, ptr %6, align 1, !tbaa !7
  store i8 %2, ptr %7, align 1, !tbaa !7
  %18 = load i16, ptr %5, align 2, !tbaa !20
  %19 = zext i16 %18 to i32
  %20 = mul i32 %19, 255
  %21 = udiv i32 %20, 360
  %22 = trunc i32 %21 to i16
  store i16 %22, ptr %5, align 2, !tbaa !20
  %23 = load i8, ptr %6, align 1, !tbaa !7
  %24 = zext i8 %23 to i16
  %25 = zext i16 %24 to i32
  %26 = mul nsw i32 %25, 255
  %27 = trunc i32 %26 to i16
  %28 = zext i16 %27 to i32
  %29 = sdiv i32 %28, 100
  %30 = trunc i32 %29 to i8
  store i8 %30, ptr %6, align 1, !tbaa !7
  %31 = load i8, ptr %7, align 1, !tbaa !7
  %32 = zext i8 %31 to i16
  %33 = zext i16 %32 to i32
  %34 = mul nsw i32 %33, 255
  %35 = trunc i32 %34 to i16
  %36 = zext i16 %35 to i32
  %37 = sdiv i32 %36, 100
  %38 = trunc i32 %37 to i8
  store i8 %38, ptr %7, align 1, !tbaa !7
  call void @llvm.lifetime.start.p0(i64 1, ptr %8) #5
  call void @llvm.lifetime.start.p0(i64 1, ptr %9) #5
  call void @llvm.lifetime.start.p0(i64 1, ptr %10) #5
  call void @llvm.lifetime.start.p0(i64 1, ptr %11) #5
  call void @llvm.lifetime.start.p0(i64 1, ptr %12) #5
  call void @llvm.lifetime.start.p0(i64 1, ptr %13) #5
  call void @llvm.lifetime.start.p0(i64 1, ptr %14) #5
  call void @llvm.lifetime.start.p0(i64 1, ptr %15) #5
  %39 = load i8, ptr %6, align 1, !tbaa !7
  %40 = zext i8 %39 to i32
  %41 = icmp eq i32 %40, 0
  br i1 %41, label %42, label %47

42:                                               ; preds = %3
  %43 = load i8, ptr %7, align 1, !tbaa !7
  %44 = load i8, ptr %7, align 1, !tbaa !7
  %45 = load i8, ptr %7, align 1, !tbaa !7
  %46 = call i24 @lv_color_make(i8 noundef zeroext %43, i8 noundef zeroext %44, i8 noundef zeroext %45)
  store i24 %46, ptr %4, align 1
  store i32 1, ptr %16, align 4
  br label %124

47:                                               ; preds = %3
  %48 = load i16, ptr %5, align 2, !tbaa !20
  %49 = zext i16 %48 to i32
  %50 = sdiv i32 %49, 43
  %51 = trunc i32 %50 to i8
  store i8 %51, ptr %11, align 1, !tbaa !7
  %52 = load i16, ptr %5, align 2, !tbaa !20
  %53 = zext i16 %52 to i32
  %54 = load i8, ptr %11, align 1, !tbaa !7
  %55 = zext i8 %54 to i32
  %56 = mul nsw i32 %55, 43
  %57 = sub nsw i32 %53, %56
  %58 = mul nsw i32 %57, 6
  %59 = trunc i32 %58 to i8
  store i8 %59, ptr %12, align 1, !tbaa !7
  %60 = load i8, ptr %7, align 1, !tbaa !7
  %61 = zext i8 %60 to i32
  %62 = load i8, ptr %6, align 1, !tbaa !7
  %63 = zext i8 %62 to i32
  %64 = sub nsw i32 255, %63
  %65 = mul nsw i32 %61, %64
  %66 = ashr i32 %65, 8
  %67 = trunc i32 %66 to i8
  store i8 %67, ptr %13, align 1, !tbaa !7
  %68 = load i8, ptr %7, align 1, !tbaa !7
  %69 = zext i8 %68 to i32
  %70 = load i8, ptr %6, align 1, !tbaa !7
  %71 = zext i8 %70 to i32
  %72 = load i8, ptr %12, align 1, !tbaa !7
  %73 = zext i8 %72 to i32
  %74 = mul nsw i32 %71, %73
  %75 = ashr i32 %74, 8
  %76 = sub nsw i32 255, %75
  %77 = mul nsw i32 %69, %76
  %78 = ashr i32 %77, 8
  %79 = trunc i32 %78 to i8
  store i8 %79, ptr %14, align 1, !tbaa !7
  %80 = load i8, ptr %7, align 1, !tbaa !7
  %81 = zext i8 %80 to i32
  %82 = load i8, ptr %6, align 1, !tbaa !7
  %83 = zext i8 %82 to i32
  %84 = load i8, ptr %12, align 1, !tbaa !7
  %85 = zext i8 %84 to i32
  %86 = sub nsw i32 255, %85
  %87 = mul nsw i32 %83, %86
  %88 = ashr i32 %87, 8
  %89 = sub nsw i32 255, %88
  %90 = mul nsw i32 %81, %89
  %91 = ashr i32 %90, 8
  %92 = trunc i32 %91 to i8
  store i8 %92, ptr %15, align 1, !tbaa !7
  %93 = load i8, ptr %11, align 1, !tbaa !7
  %94 = zext i8 %93 to i32
  switch i32 %94, label %115 [
    i32 0, label %95
    i32 1, label %99
    i32 2, label %103
    i32 3, label %107
    i32 4, label %111
  ]

95:                                               ; preds = %47
  %96 = load i8, ptr %7, align 1, !tbaa !7
  store i8 %96, ptr %8, align 1, !tbaa !7
  %97 = load i8, ptr %15, align 1, !tbaa !7
  store i8 %97, ptr %9, align 1, !tbaa !7
  %98 = load i8, ptr %13, align 1, !tbaa !7
  store i8 %98, ptr %10, align 1, !tbaa !7
  br label %119

99:                                               ; preds = %47
  %100 = load i8, ptr %14, align 1, !tbaa !7
  store i8 %100, ptr %8, align 1, !tbaa !7
  %101 = load i8, ptr %7, align 1, !tbaa !7
  store i8 %101, ptr %9, align 1, !tbaa !7
  %102 = load i8, ptr %13, align 1, !tbaa !7
  store i8 %102, ptr %10, align 1, !tbaa !7
  br label %119

103:                                              ; preds = %47
  %104 = load i8, ptr %13, align 1, !tbaa !7
  store i8 %104, ptr %8, align 1, !tbaa !7
  %105 = load i8, ptr %7, align 1, !tbaa !7
  store i8 %105, ptr %9, align 1, !tbaa !7
  %106 = load i8, ptr %15, align 1, !tbaa !7
  store i8 %106, ptr %10, align 1, !tbaa !7
  br label %119

107:                                              ; preds = %47
  %108 = load i8, ptr %13, align 1, !tbaa !7
  store i8 %108, ptr %8, align 1, !tbaa !7
  %109 = load i8, ptr %14, align 1, !tbaa !7
  store i8 %109, ptr %9, align 1, !tbaa !7
  %110 = load i8, ptr %7, align 1, !tbaa !7
  store i8 %110, ptr %10, align 1, !tbaa !7
  br label %119

111:                                              ; preds = %47
  %112 = load i8, ptr %15, align 1, !tbaa !7
  store i8 %112, ptr %8, align 1, !tbaa !7
  %113 = load i8, ptr %13, align 1, !tbaa !7
  store i8 %113, ptr %9, align 1, !tbaa !7
  %114 = load i8, ptr %7, align 1, !tbaa !7
  store i8 %114, ptr %10, align 1, !tbaa !7
  br label %119

115:                                              ; preds = %47
  %116 = load i8, ptr %7, align 1, !tbaa !7
  store i8 %116, ptr %8, align 1, !tbaa !7
  %117 = load i8, ptr %13, align 1, !tbaa !7
  store i8 %117, ptr %9, align 1, !tbaa !7
  %118 = load i8, ptr %14, align 1, !tbaa !7
  store i8 %118, ptr %10, align 1, !tbaa !7
  br label %119

119:                                              ; preds = %115, %111, %107, %103, %99, %95
  %120 = load i8, ptr %8, align 1, !tbaa !7
  %121 = load i8, ptr %9, align 1, !tbaa !7
  %122 = load i8, ptr %10, align 1, !tbaa !7
  %123 = call i24 @lv_color_make(i8 noundef zeroext %120, i8 noundef zeroext %121, i8 noundef zeroext %122)
  store i24 %123, ptr %4, align 1
  store i32 1, ptr %16, align 4
  br label %124

124:                                              ; preds = %119, %42
  call void @llvm.lifetime.end.p0(i64 1, ptr %15) #5
  call void @llvm.lifetime.end.p0(i64 1, ptr %14) #5
  call void @llvm.lifetime.end.p0(i64 1, ptr %13) #5
  call void @llvm.lifetime.end.p0(i64 1, ptr %12) #5
  call void @llvm.lifetime.end.p0(i64 1, ptr %11) #5
  call void @llvm.lifetime.end.p0(i64 1, ptr %10) #5
  call void @llvm.lifetime.end.p0(i64 1, ptr %9) #5
  call void @llvm.lifetime.end.p0(i64 1, ptr %8) #5
  call void @llvm.memcpy.p0.p0.i64(ptr align 4 %17, ptr align 1 %4, i64 3, i1 false)
  %125 = load i24, ptr %17, align 4
  ret i24 %125
}